target datalayout = "e-m:e-p270:32:32-p271:32:32-p272:64:64-i64:64-i128:128-f80:128-n8:16:32:64-S128"
target triple = "x86_64-pc-linux-gnu"

%struct.If_DsdMan_t_ = type { ptr, i32, i32, i32, i32, ptr, ptr, %struct.Vec_Ptr_t_, %struct.Vec_Int_t_, %struct.Vec_Int_t_, ptr, ptr, ptr, [16 x ptr], [16 x ptr], [16 x ptr], [16 x ptr], i32, i32, ptr, ptr, ptr, ptr, ptr, i32, i32, i32, i32, i64, i64, i64, i64, i64 }
%struct.Vec_Ptr_t_ = type { i32, i32, ptr }
%struct.Vec_Int_t_ = type { i32, i32, ptr }
%struct.If_DsdObj_t_ = type { i32, i32, [0 x i32] }

; Function Attrs: inlinehint nounwind uwtable
define internal ptr @Vec_PtrEntry(ptr noundef %0, i32 noundef %1) #1 {
  %3 = alloca ptr, align 8
  %4 = alloca i32, align 4
  store ptr %0, ptr %3, align 8, !tbaa !22
  store i32 %1, ptr %4, align 4, !tbaa !27
  %5 = load ptr, ptr %3, align 8, !tbaa !22
  %6 = getelementptr inbounds nuw %struct.Vec_Ptr_t_, ptr %5, i32 0, i32 2
  %7 = load ptr, ptr %6, align 8, !tbaa !46
  %8 = load i32, ptr %4, align 4, !tbaa !27
  %9 = sext i32 %8 to i64
  %10 = getelementptr inbounds ptr, ptr %7, i64 %9
  %11 = load ptr, ptr %10, align 8, !tbaa !44
  ret ptr %11
}

; Function Attrs: inlinehint nounwind uwtable
define internal ptr @If_DsdVecObj(ptr noundef %0, i32 noundef %1) #1 {
  %3 = alloca ptr, align 8
  %4 = alloca i32, align 4
  store ptr %0, ptr %3, align 8, !tbaa !22
  store i32 %1, ptr %4, align 4, !tbaa !27
  %5 = load ptr, ptr %3, align 8, !tbaa !22
  %6 = load i32, ptr %4, align 4, !tbaa !27
  %7 = call ptr @Vec_PtrEntry(ptr noundef %5, i32 noundef %6)
  ret ptr %7
}

; Function Attrs: inlinehint nounwind uwtable
define internal i32 @If_DsdVecObjSuppSize(ptr noundef %0, i32 noundef %1) #1 {
  %3 = alloca ptr, align 8
  %4 = alloca i32, align 4
  store ptr %0, ptr %3, align 8, !tbaa !22
  store i32 %1, ptr %4, align 4, !tbaa !27
  %5 = load ptr, ptr %3, align 8, !tbaa !22
  %6 = load i32, ptr %4, align 4, !tbaa !27
  %7 = call ptr @If_DsdVecObj(ptr noundef %5, i32 noundef %6)
  %8 = getelementptr inbounds nuw %struct.If_DsdObj_t_, ptr %7, i32 0, i32 1
  %9 = load i32, ptr %8, align 4
  %10 = lshr i32 %9, 3
  %11 = and i32 %10, 31
  ret i32 %11
}

; Function Attrs: inlinehint nounwind uwtable
define internal i32 @Abc_Lit2Var(i32 noundef %0) #1 {
  %2 = alloca i32, align 4
  store i32 %0, ptr %2, align 4, !tbaa !27
  %3 = load i32, ptr %2, align 4, !tbaa !27
  %4 = ashr i32 %3, 1
  ret i32 %4
}

; Function Attrs: inlinehint nounwind uwtable
define internal i32 @If_DsdVecLitSuppSize(ptr noundef %0, i32 noundef %1) #1 {
  %3 = alloca ptr, align 8
  %4 = alloca i32, align 4
  store ptr %0, ptr %3, align 8, !tbaa !22
  store i32 %1, ptr %4, align 4, !tbaa !27
  %5 = load ptr, ptr %3, align 8, !tbaa !22
  %6 = load i32, ptr %4, align 4, !tbaa !27
  %7 = call i32 @Abc_Lit2Var(i32 noundef %6)
  %8 = call i32 @If_DsdVecObjSuppSize(ptr noundef %5, i32 noundef %7)
  ret i32 %8
}

; Function Attrs: nounwind uwtable
define i32 @If_DsdManComputeFirstArray(ptr noundef %0, ptr noundef %1, i32 noundef %2, ptr noundef %3) #0 {
  %5 = alloca ptr, align 8
  %6 = alloca ptr, align 8
  %7 = alloca i32, align 4
  %8 = alloca ptr, align 8
  %9 = alloca i32, align 4
  %10 = alloca i32, align 4
  store ptr %0, ptr %5, align 8, !tbaa !3
  store ptr %1, ptr %6, align 8, !tbaa !60
  store i32 %2, ptr %7, align 4, !tbaa !27
  store ptr %3, ptr %8, align 8, !tbaa !60
  call void @llvm.lifetime.start.p0(i64 4, ptr %9) #15
  call void @llvm.lifetime.start.p0(i64 4, ptr %10) #15
  store i32 0, ptr %10, align 4, !tbaa !27
  store i32 0, ptr %9, align 4, !tbaa !27
  br label %11

11:                                               ; preds = %31, %4
  %12 = load i32, ptr %9, align 4, !tbaa !27
  %13 = load i32, ptr %7, align 4, !tbaa !27
  %14 = icmp slt i32 %12, %13
  br i1 %14, label %15, label %34

15:                                               ; preds = %11
  %16 = load i32, ptr %10, align 4, !tbaa !27
  %17 = load ptr, ptr %8, align 8, !tbaa !60
  %18 = load i32, ptr %9, align 4, !tbaa !27
  %19 = sext i32 %18 to i64
  %20 = getelementptr inbounds i32, ptr %17, i64 %19
  store i32 %16, ptr %20, align 4, !tbaa !27
  %21 = load ptr, ptr %5, align 8, !tbaa !3
  %22 = getelementptr inbounds nuw %struct.If_DsdMan_t_, ptr %21, i32 0, i32 7
  %23 = load ptr, ptr %6, align 8, !tbaa !60
  %24 = load i32, ptr %9, align 4, !tbaa !27
  %25 = sext i32 %24 to i64
  %26 = getelementptr inbounds i32, ptr %23, i64 %25
  %27 = load i32, ptr %26, align 4, !tbaa !27
  %28 = call i32 @If_DsdVecLitSuppSize(ptr noundef %22, i32 noundef %27)
  %29 = load i32, ptr %10, align 4, !tbaa !27
  %30 = add nsw i32 %29, %28
  store i32 %30, ptr %10, align 4, !tbaa !27
  br label %31

31:                                               ; preds = %15
  %32 = load i32, ptr %9, align 4, !tbaa !27
  %33 = add nsw i32 %32, 1
  store i32 %33, ptr %9, align 4, !tbaa !27
  br label %11, !llvm.loop !207

34:                                               ; preds = %11
  %35 = load i32, ptr %10, align 4, !tbaa !27
  call void @llvm.lifetime.end.p0(i64 4, ptr %10) #15
  call void @llvm.lifetime.end.p0(i64 4, ptr %9) #15
  ret i32 %35
}

; Function Attrs: nounwind uwtable
define i32 @If_DsdManComputeFirst(ptr noundef %0, ptr noundef %1, ptr noundef %2) #0 {
  %4 = alloca ptr, align 8
  %5 = alloca ptr, align 8
  %6 = alloca ptr, align 8
  store ptr %0, ptr %4, align 8, !tbaa !3
  store ptr %1, ptr %5, align 8, !tbaa !40
  store ptr %2, ptr %6, align 8, !tbaa !60
  %7 = load ptr, ptr %4, align 8, !tbaa !3
  %8 = load ptr, ptr %5, align 8, !tbaa !40
  %9 = getelementptr inbounds nuw %struct.If_DsdObj_t_, ptr %8, i32 0, i32 2
  %10 = getelementptr inbounds [0 x i32], ptr %9, i64 0, i64 0
  %11 = load ptr, ptr %5, align 8, !tbaa !40
  %12 = getelementptr inbounds nuw %struct.If_DsdObj_t_, ptr %11, i32 0, i32 1
  %13 = load i32, ptr %12, align 4
  %14 = lshr i32 %13, 27
  %15 = load ptr, ptr %6, align 8, !tbaa !60
  %16 = call i32 @If_DsdManComputeFirstArray(ptr noundef %7, ptr noundef %10, i32 noundef %14, ptr noundef %15)
  ret i32 %16
}