; Function Attrs: nofree norecurse nosync nounwind memory(read, argmem: readwrite, inaccessiblemem: none) uwtable
define i32 @If_DsdManComputeFirst(ptr noundef readonly captures(none) %0, ptr noundef readonly captures(none) %1, ptr noundef writeonly captures(none) %2) local_unnamed_addr #23 {
  %4 = getelementptr inbounds nuw i8, ptr %1, i64 8
  %5 = getelementptr inbounds nuw i8, ptr %1, i64 4
  %6 = load i32, ptr %5, align 4
  %.not = icmp ult i32 %6, 134217728
  br i1 %.not, label %If_DsdManComputeFirstArray.exit, label %.lr.ph.i

.lr.ph.i:                                         ; preds = %3
  %7 = lshr i32 %6, 27
  %8 = getelementptr i8, ptr %0, i64 48
  %.val.i = load ptr, ptr %8, align 8, !tbaa !23
  %wide.trip.count.i = zext nneg i32 %7 to i64
  br label %9

9:                                                ; preds = %9, %.lr.ph.i
  %indvars.iv.i = phi i64 [ 0, %.lr.ph.i ], [ %indvars.iv.next.i, %9 ]
  %.012.i = phi i32 [ 0, %.lr.ph.i ], [ %21, %9 ]
  %10 = getelementptr inbounds nuw i32, ptr %2, i64 %indvars.iv.i
  store i32 %.012.i, ptr %10, align 4, !tbaa !40
  %11 = getelementptr inbounds nuw i32, ptr %4, i64 %indvars.iv.i
  %12 = load i32, ptr %11, align 4, !tbaa !40
  %13 = ashr i32 %12, 1
  %14 = sext i32 %13 to i64
  %15 = getelementptr inbounds ptr, ptr %.val.i, i64 %14
  %16 = load ptr, ptr %15, align 8, !tbaa !24
  %17 = getelementptr inbounds nuw i8, ptr %16, i64 4
  %18 = load i32, ptr %17, align 4
  %19 = lshr i32 %18, 3
  %20 = and i32 %19, 31
  %21 = add nuw nsw i32 %20, %.012.i
  %indvars.iv.next.i = add nuw nsw i64 %indvars.iv.i, 1
  %exitcond.not.i = icmp eq i64 %indvars.iv.next.i, %wide.trip.count.i
  br i1 %exitcond.not.i, label %If_DsdManComputeFirstArray.exit, label %9, !llvm.loop !203

If_DsdManComputeFirstArray.exit:                  ; preds = %9, %3
  %.0.lcssa.i = phi i32 [ 0, %3 ], [ %21, %9 ]
  ret i32 %.0.lcssa.i
}